	.file	"../src/app_bayer_testbench.xc"

	.inline_definition delay_seconds
	.inline_definition delay_milliseconds
	.inline_definition delay_microseconds
	.set __main__main_tile_1.savedstate,21
	.globl __main__main_tile_1.savedstate
	.weak _i.mgmt_interface.apm_mgmt.maxchanends.group
	.add_to_set _i.mgmt_interface.apm_mgmt.maxchanends.group, _i.mgmt_interface._chan.apm_mgmt.maxchanends, _i.mgmt_interface._chan.apm_mgmt
	.max_reduce _i.mgmt_interface.apm_mgmt.max.maxchanends, _i.mgmt_interface.apm_mgmt.maxchanends.group, 0
	.weak _i.mgmt_interface.apm_mgmt.maxcores.group
	.add_to_set _i.mgmt_interface.apm_mgmt.maxcores.group, _i.mgmt_interface._chan.apm_mgmt.maxcores, _i.mgmt_interface._chan.apm_mgmt
	.max_reduce _i.mgmt_interface.apm_mgmt.max.maxcores, _i.mgmt_interface.apm_mgmt.maxcores.group, 0
	.weak _i.mgmt_interface.apm_mgmt.maxtimers.group
	.add_to_set _i.mgmt_interface.apm_mgmt.maxtimers.group, _i.mgmt_interface._chan.apm_mgmt.maxtimers, _i.mgmt_interface._chan.apm_mgmt
	.max_reduce _i.mgmt_interface.apm_mgmt.max.maxtimers, _i.mgmt_interface.apm_mgmt.maxtimers.group, 0
	.weak _i.mgmt_interface.apm_mgmt.nstackwords.group
	.globl _i.mgmt_interface.apm_mgmt.nstackwords.group
	.weak _i.mgmt_interface.apm_mgmt.fns.group
	.globl _i.mgmt_interface.apm_mgmt.fns.group
	.add_to_set _i.mgmt_interface.apm_mgmt.nstackwords.group, _i.mgmt_interface._chan.apm_mgmt.nstackwords, _i.mgmt_interface._chan.apm_mgmt
	.add_to_set _i.mgmt_interface.apm_mgmt.fns.group, _i.mgmt_interface._chan.apm_mgmt
	.max_reduce _i.mgmt_interface.apm_mgmt.max.nstackwords, _i.mgmt_interface.apm_mgmt.nstackwords.group, 0
	.max_reduce _i.mgmt_interface.apm_mgmt.fns, _i.mgmt_interface.apm_mgmt.fns.group, 0
	.weak _i.mgmt_interface.get_response.maxchanends.group
	.add_to_set _i.mgmt_interface.get_response.maxchanends.group, _i.mgmt_interface._chan.get_response.maxchanends, _i.mgmt_interface._chan.get_response
	.max_reduce _i.mgmt_interface.get_response.max.maxchanends, _i.mgmt_interface.get_response.maxchanends.group, 0
	.weak _i.mgmt_interface.get_response.maxcores.group
	.add_to_set _i.mgmt_interface.get_response.maxcores.group, _i.mgmt_interface._chan.get_response.maxcores, _i.mgmt_interface._chan.get_response
	.max_reduce _i.mgmt_interface.get_response.max.maxcores, _i.mgmt_interface.get_response.maxcores.group, 0
	.weak _i.mgmt_interface.get_response.maxtimers.group
	.add_to_set _i.mgmt_interface.get_response.maxtimers.group, _i.mgmt_interface._chan.get_response.maxtimers, _i.mgmt_interface._chan.get_response
	.max_reduce _i.mgmt_interface.get_response.max.maxtimers, _i.mgmt_interface.get_response.maxtimers.group, 0
	.weak _i.mgmt_interface.get_response.nstackwords.group
	.globl _i.mgmt_interface.get_response.nstackwords.group
	.weak _i.mgmt_interface.get_response.fns.group
	.globl _i.mgmt_interface.get_response.fns.group
	.add_to_set _i.mgmt_interface.get_response.nstackwords.group, _i.mgmt_interface._chan.get_response.nstackwords, _i.mgmt_interface._chan.get_response
	.add_to_set _i.mgmt_interface.get_response.fns.group, _i.mgmt_interface._chan.get_response
	.max_reduce _i.mgmt_interface.get_response.max.nstackwords, _i.mgmt_interface.get_response.nstackwords.group, 0
	.max_reduce _i.mgmt_interface.get_response.fns, _i.mgmt_interface.get_response.fns.group, 0
	.weak _i.mgmt_interface.__interface_init.maxchanends.group
	.max_reduce _i.mgmt_interface.__interface_init.max.maxchanends, _i.mgmt_interface.__interface_init.maxchanends.group, 0
	.weak _i.mgmt_interface.__interface_init.maxcores.group
	.max_reduce _i.mgmt_interface.__interface_init.max.maxcores, _i.mgmt_interface.__interface_init.maxcores.group, 0
	.weak _i.mgmt_interface.__interface_init.maxtimers.group
	.max_reduce _i.mgmt_interface.__interface_init.max.maxtimers, _i.mgmt_interface.__interface_init.maxtimers.group, 0
	.weak _i.mgmt_interface.__interface_init.nstackwords.group
	.globl _i.mgmt_interface.__interface_init.nstackwords.group
	.weak _i.mgmt_interface.__interface_init.fns.group
	.globl _i.mgmt_interface.__interface_init.fns.group
	.max_reduce _i.mgmt_interface.__interface_init.max.nstackwords, _i.mgmt_interface.__interface_init.nstackwords.group, 0
	.max_reduce _i.mgmt_interface.__interface_init.fns, _i.mgmt_interface.__interface_init.fns.group, 0
	.weak _i.mgmt_interface._client_call.maxchanends.group
	.add_to_set _i.mgmt_interface._client_call.maxchanends.group, (__interface_client_call_other.maxchanends + __interface_client_call_extra.maxchanends), __interface_client_call_other
	.max_reduce _i.mgmt_interface._client_call.max.maxchanends, _i.mgmt_interface._client_call.maxchanends.group, 0
	.weak _i.mgmt_interface._client_call.maxcores.group
	.add_to_set _i.mgmt_interface._client_call.maxcores.group, (__interface_client_call_other.maxcores + __interface_client_call_extra.maxcores), __interface_client_call_other
	.max_reduce _i.mgmt_interface._client_call.max.maxcores, _i.mgmt_interface._client_call.maxcores.group, 0
	.weak _i.mgmt_interface._client_call.maxtimers.group
	.add_to_set _i.mgmt_interface._client_call.maxtimers.group, (__interface_client_call_other.maxtimers + __interface_client_call_extra.maxtimers), __interface_client_call_other
	.max_reduce _i.mgmt_interface._client_call.max.maxtimers, _i.mgmt_interface._client_call.maxtimers.group, 0
	.weak _i.mgmt_interface._client_call.nstackwords.group
	.globl _i.mgmt_interface._client_call.nstackwords.group
	.weak _i.mgmt_interface._client_call.fns.group
	.globl _i.mgmt_interface._client_call.fns.group
	.add_to_set _i.mgmt_interface._client_call.nstackwords.group, (__interface_client_call_other.nstackwords + __interface_client_call_extra.nstackwords), __interface_client_call_other
	.add_to_set _i.mgmt_interface._client_call.fns.group, __interface_client_call_other
	.max_reduce _i.mgmt_interface._client_call.max.nstackwords, _i.mgmt_interface._client_call.nstackwords.group, 0
	.max_reduce _i.mgmt_interface._client_call.fns, _i.mgmt_interface._client_call.fns.group, 0
	.weak _i.pipeline_interface.get_new_line.maxchanends.group
	.add_to_set _i.pipeline_interface.get_new_line.maxchanends.group, _i.pipeline_interface._chan.get_new_line.maxchanends, _i.pipeline_interface._chan.get_new_line
	.max_reduce _i.pipeline_interface.get_new_line.max.maxchanends, _i.pipeline_interface.get_new_line.maxchanends.group, 0
	.weak _i.pipeline_interface.get_new_line.maxcores.group
	.add_to_set _i.pipeline_interface.get_new_line.maxcores.group, _i.pipeline_interface._chan.get_new_line.maxcores, _i.pipeline_interface._chan.get_new_line
	.max_reduce _i.pipeline_interface.get_new_line.max.maxcores, _i.pipeline_interface.get_new_line.maxcores.group, 0
	.weak _i.pipeline_interface.get_new_line.maxtimers.group
	.add_to_set _i.pipeline_interface.get_new_line.maxtimers.group, _i.pipeline_interface._chan.get_new_line.maxtimers, _i.pipeline_interface._chan.get_new_line
	.max_reduce _i.pipeline_interface.get_new_line.max.maxtimers, _i.pipeline_interface.get_new_line.maxtimers.group, 0
	.weak _i.pipeline_interface.get_new_line.nstackwords.group
	.globl _i.pipeline_interface.get_new_line.nstackwords.group
	.weak _i.pipeline_interface.get_new_line.fns.group
	.globl _i.pipeline_interface.get_new_line.fns.group
	.add_to_set _i.pipeline_interface.get_new_line.nstackwords.group, _i.pipeline_interface._chan.get_new_line.nstackwords, _i.pipeline_interface._chan.get_new_line
	.add_to_set _i.pipeline_interface.get_new_line.fns.group, _i.pipeline_interface._chan.get_new_line
	.max_reduce _i.pipeline_interface.get_new_line.max.nstackwords, _i.pipeline_interface.get_new_line.nstackwords.group, 0
	.max_reduce _i.pipeline_interface.get_new_line.fns, _i.pipeline_interface.get_new_line.fns.group, 0
	.weak _i.pipeline_interface.release_line_buf.maxchanends.group
	.add_to_set _i.pipeline_interface.release_line_buf.maxchanends.group, _i.pipeline_interface._chan.release_line_buf.maxchanends, _i.pipeline_interface._chan.release_line_buf
	.max_reduce _i.pipeline_interface.release_line_buf.max.maxchanends, _i.pipeline_interface.release_line_buf.maxchanends.group, 0
	.weak _i.pipeline_interface.release_line_buf.maxcores.group
	.add_to_set _i.pipeline_interface.release_line_buf.maxcores.group, _i.pipeline_interface._chan.release_line_buf.maxcores, _i.pipeline_interface._chan.release_line_buf
	.max_reduce _i.pipeline_interface.release_line_buf.max.maxcores, _i.pipeline_interface.release_line_buf.maxcores.group, 0
	.weak _i.pipeline_interface.release_line_buf.maxtimers.group
	.add_to_set _i.pipeline_interface.release_line_buf.maxtimers.group, _i.pipeline_interface._chan.release_line_buf.maxtimers, _i.pipeline_interface._chan.release_line_buf
	.max_reduce _i.pipeline_interface.release_line_buf.max.maxtimers, _i.pipeline_interface.release_line_buf.maxtimers.group, 0
	.weak _i.pipeline_interface.release_line_buf.nstackwords.group
	.globl _i.pipeline_interface.release_line_buf.nstackwords.group
	.weak _i.pipeline_interface.release_line_buf.fns.group
	.globl _i.pipeline_interface.release_line_buf.fns.group
	.add_to_set _i.pipeline_interface.release_line_buf.nstackwords.group, _i.pipeline_interface._chan.release_line_buf.nstackwords, _i.pipeline_interface._chan.release_line_buf
	.add_to_set _i.pipeline_interface.release_line_buf.fns.group, _i.pipeline_interface._chan.release_line_buf
	.max_reduce _i.pipeline_interface.release_line_buf.max.nstackwords, _i.pipeline_interface.release_line_buf.nstackwords.group, 0
	.max_reduce _i.pipeline_interface.release_line_buf.fns, _i.pipeline_interface.release_line_buf.fns.group, 0
	.weak _i.pipeline_interface.__interface_init.maxchanends.group
	.max_reduce _i.pipeline_interface.__interface_init.max.maxchanends, _i.pipeline_interface.__interface_init.maxchanends.group, 0
	.weak _i.pipeline_interface.__interface_init.maxcores.group
	.max_reduce _i.pipeline_interface.__interface_init.max.maxcores, _i.pipeline_interface.__interface_init.maxcores.group, 0
	.weak _i.pipeline_interface.__interface_init.maxtimers.group
	.max_reduce _i.pipeline_interface.__interface_init.max.maxtimers, _i.pipeline_interface.__interface_init.maxtimers.group, 0
	.weak _i.pipeline_interface.__interface_init.nstackwords.group
	.globl _i.pipeline_interface.__interface_init.nstackwords.group
	.weak _i.pipeline_interface.__interface_init.fns.group
	.globl _i.pipeline_interface.__interface_init.fns.group
	.max_reduce _i.pipeline_interface.__interface_init.max.nstackwords, _i.pipeline_interface.__interface_init.nstackwords.group, 0
	.max_reduce _i.pipeline_interface.__interface_init.fns, _i.pipeline_interface.__interface_init.fns.group, 0
	.weak _i.pipeline_interface._client_call.maxchanends.group
	.add_to_set _i.pipeline_interface._client_call.maxchanends.group, (__interface_client_call_other.maxchanends + __interface_client_call_extra.maxchanends), __interface_client_call_other
	.max_reduce _i.pipeline_interface._client_call.max.maxchanends, _i.pipeline_interface._client_call.maxchanends.group, 0
	.weak _i.pipeline_interface._client_call.maxcores.group
	.add_to_set _i.pipeline_interface._client_call.maxcores.group, (__interface_client_call_other.maxcores + __interface_client_call_extra.maxcores), __interface_client_call_other
	.max_reduce _i.pipeline_interface._client_call.max.maxcores, _i.pipeline_interface._client_call.maxcores.group, 0
	.weak _i.pipeline_interface._client_call.maxtimers.group
	.add_to_set _i.pipeline_interface._client_call.maxtimers.group, (__interface_client_call_other.maxtimers + __interface_client_call_extra.maxtimers), __interface_client_call_other
	.max_reduce _i.pipeline_interface._client_call.max.maxtimers, _i.pipeline_interface._client_call.maxtimers.group, 0
	.weak _i.pipeline_interface._client_call.nstackwords.group
	.globl _i.pipeline_interface._client_call.nstackwords.group
	.weak _i.pipeline_interface._client_call.fns.group
	.globl _i.pipeline_interface._client_call.fns.group
	.add_to_set _i.pipeline_interface._client_call.nstackwords.group, (__interface_client_call_other.nstackwords + __interface_client_call_extra.nstackwords), __interface_client_call_other
	.add_to_set _i.pipeline_interface._client_call.fns.group, __interface_client_call_other
	.max_reduce _i.pipeline_interface._client_call.max.nstackwords, _i.pipeline_interface._client_call.nstackwords.group, 0
	.max_reduce _i.pipeline_interface._client_call.fns, _i.pipeline_interface._client_call.fns.group, 0
	.weak _i.pipeline_interface.get_new_line.maxchanends.group
	.add_to_set _i.pipeline_interface.get_new_line.maxchanends.group, _i.pipeline_interface._chan.get_new_line.maxchanends, _i.pipeline_interface._chan.get_new_line
	.weak _i.pipeline_interface.get_new_line.maxcores.group
	.add_to_set _i.pipeline_interface.get_new_line.maxcores.group, _i.pipeline_interface._chan.get_new_line.maxcores, _i.pipeline_interface._chan.get_new_line
	.weak _i.pipeline_interface.get_new_line.maxtimers.group
	.add_to_set _i.pipeline_interface.get_new_line.maxtimers.group, _i.pipeline_interface._chan.get_new_line.maxtimers, _i.pipeline_interface._chan.get_new_line
	.weak _i.pipeline_interface.get_new_line.nstackwords.group
	.globl _i.pipeline_interface.get_new_line.nstackwords.group
	.weak _i.pipeline_interface.get_new_line.fns.group
	.globl _i.pipeline_interface.get_new_line.fns.group
	.add_to_set _i.pipeline_interface.get_new_line.nstackwords.group, _i.pipeline_interface._chan.get_new_line.nstackwords, _i.pipeline_interface._chan.get_new_line
	.add_to_set _i.pipeline_interface.get_new_line.fns.group, _i.pipeline_interface._chan.get_new_line
	.weak _i.pipeline_interface.release_line_buf.maxchanends.group
	.add_to_set _i.pipeline_interface.release_line_buf.maxchanends.group, _i.pipeline_interface._chan.release_line_buf.maxchanends, _i.pipeline_interface._chan.release_line_buf
	.weak _i.pipeline_interface.release_line_buf.maxcores.group
	.add_to_set _i.pipeline_interface.release_line_buf.maxcores.group, _i.pipeline_interface._chan.release_line_buf.maxcores, _i.pipeline_interface._chan.release_line_buf
	.weak _i.pipeline_interface.release_line_buf.maxtimers.group
	.add_to_set _i.pipeline_interface.release_line_buf.maxtimers.group, _i.pipeline_interface._chan.release_line_buf.maxtimers, _i.pipeline_interface._chan.release_line_buf
	.weak _i.pipeline_interface.release_line_buf.nstackwords.group
	.globl _i.pipeline_interface.release_line_buf.nstackwords.group
	.weak _i.pipeline_interface.release_line_buf.fns.group
	.globl _i.pipeline_interface.release_line_buf.fns.group
	.add_to_set _i.pipeline_interface.release_line_buf.nstackwords.group, _i.pipeline_interface._chan.release_line_buf.nstackwords, _i.pipeline_interface._chan.release_line_buf
	.add_to_set _i.pipeline_interface.release_line_buf.fns.group, _i.pipeline_interface._chan.release_line_buf
	.weak _i.pipeline_interface.__interface_init.maxchanends.group
	.weak _i.pipeline_interface.__interface_init.maxcores.group
	.weak _i.pipeline_interface.__interface_init.maxtimers.group
	.weak _i.pipeline_interface.__interface_init.nstackwords.group
	.globl _i.pipeline_interface.__interface_init.nstackwords.group
	.weak _i.pipeline_interface.__interface_init.fns.group
	.globl _i.pipeline_interface.__interface_init.fns.group
	.section .netinfo, "", @netinfo
	.int      0x1eaba15c
	main.parinfo.debugstring0:
	.asciiz "# 90 \"../src/app_bayer_testbench.xc\""
	main.parinfo.debugstring1:
	.asciiz "# 97 \"../src/app_bayer_testbench.xc\""
	.cc_top main.parinfo.cc, main.parinfo
	.globl main.parinfo
	.type main.parinfo, @object
	main.parinfo:
	.int 0x00000004
	.long 0
	.long main.parinfo.debugstring0
	.long main.parinfo.debugstring1
	.int 0x00000001
	.int 0x00000000
	.int $N __main__main_tile_1
	.long tile + 4
	.call __main__main_tile_1,usage.anon.3
	.int 0x00000000
	.cc_bottom main.parinfo.cc
	.weak _i.pipeline_interface.get_new_line.maxchanends.group
	.weak _i.pipeline_interface.get_new_line.maxcores.group
	.weak _i.pipeline_interface.get_new_line.maxtimers.group
	.weak _i.pipeline_interface.get_new_line.nstackwords.group
	.globl _i.pipeline_interface.get_new_line.nstackwords.group
	.weak _i.pipeline_interface.get_new_line.fns.group
	.globl _i.pipeline_interface.get_new_line.fns.group
	.weak _i.pipeline_interface.release_line_buf.maxchanends.group
	.weak _i.pipeline_interface.release_line_buf.maxcores.group
	.weak _i.pipeline_interface.release_line_buf.maxtimers.group
	.weak _i.pipeline_interface.release_line_buf.nstackwords.group
	.globl _i.pipeline_interface.release_line_buf.nstackwords.group
	.weak _i.pipeline_interface.release_line_buf.fns.group
	.globl _i.pipeline_interface.release_line_buf.fns.group
	.weak _i.pipeline_interface.__interface_init.maxchanends.group
	.weak _i.pipeline_interface.__interface_init.maxcores.group
	.weak _i.pipeline_interface.__interface_init.maxtimers.group
	.weak _i.pipeline_interface.__interface_init.nstackwords.group
	.globl _i.pipeline_interface.__interface_init.nstackwords.group
	.weak _i.pipeline_interface.__interface_init.fns.group
	.globl _i.pipeline_interface.__interface_init.fns.group
	.weak _i.mgmt_interface.apm_mgmt.maxchanends.group
	.weak _i.mgmt_interface.apm_mgmt.maxcores.group
	.weak _i.mgmt_interface.apm_mgmt.maxtimers.group
	.weak _i.mgmt_interface.apm_mgmt.nstackwords.group
	.globl _i.mgmt_interface.apm_mgmt.nstackwords.group
	.weak _i.mgmt_interface.apm_mgmt.fns.group
	.globl _i.mgmt_interface.apm_mgmt.fns.group
	.weak _i.mgmt_interface.get_response.maxchanends.group
	.weak _i.mgmt_interface.get_response.maxcores.group
	.weak _i.mgmt_interface.get_response.maxtimers.group
	.weak _i.mgmt_interface.get_response.nstackwords.group
	.globl _i.mgmt_interface.get_response.nstackwords.group
	.weak _i.mgmt_interface.get_response.fns.group
	.globl _i.mgmt_interface.get_response.fns.group
	.weak _i.mgmt_interface.__interface_init.maxchanends.group
	.weak _i.mgmt_interface.__interface_init.maxcores.group
	.weak _i.mgmt_interface.__interface_init.maxtimers.group
	.weak _i.mgmt_interface.__interface_init.nstackwords.group
	.globl _i.mgmt_interface.__interface_init.nstackwords.group
	.weak _i.mgmt_interface.__interface_init.fns.group
	.globl _i.mgmt_interface.__interface_init.fns.group
	.set usage.anon.0,0
	.set usage.anon.1,0
	.set usage.anon.2,0
	.set usage.anon.3,0
	.call usage.anon.3,bayer_testbench_upstream
	.call usage.anon.3,bayer_interpolation
	.call usage.anon.3,bayer_testbench_downstream
	.call usage.anon.3,mgmt_intrf
	.call main,mgmt_intrf
	.call main,bayer_testbench_upstream
	.call main,bayer_testbench_downstream
	.call main,bayer_interpolation
	.call mgmt_intrf,usage.anon.0
	.call mgmt_intrf,printstrln
	.call usage.anon.2,delay_ticks_longlong
	.call usage.anon.1,delay_ticks_longlong
	.call usage.anon.0,delay_ticks_longlong
	.par mgmt_intrf,bayer_testbench_downstream,"../src/app_bayer_testbench.xc:90: error: use of `%s' violates parallel usage rules"
	.par mgmt_intrf,bayer_interpolation,"../src/app_bayer_testbench.xc:90: error: use of `%s' violates parallel usage rules"
	.par mgmt_intrf,bayer_testbench_upstream,"../src/app_bayer_testbench.xc:90: error: use of `%s' violates parallel usage rules"
	.par bayer_testbench_downstream,bayer_interpolation,"../src/app_bayer_testbench.xc:90: error: use of `%s' violates parallel usage rules"
	.par bayer_testbench_downstream,bayer_testbench_upstream,"../src/app_bayer_testbench.xc:90: error: use of `%s' violates parallel usage rules"
	.par bayer_interpolation,bayer_testbench_upstream,"../src/app_bayer_testbench.xc:90: error: use of `%s' violates parallel usage rules"
	.set usage.anon.0.locnoside, 1
	.set usage.anon.1.locnoside, 1
	.set usage.anon.2.locnoside, 1
	.set main.locnoside, 1
	.set usage.anon.0.locnochandec, 1
	.set usage.anon.1.locnochandec, 1
	.set usage.anon.2.locnochandec, 1
	.set mgmt_intrf.locnochandec, 1
	.set main.locnochandec, 1
	.set usage.anon.0.locnoglobalaccess, 1
	.set usage.anon.1.locnoglobalaccess, 1
	.set usage.anon.2.locnoglobalaccess, 1
	.set mgmt_intrf.locnoglobalaccess, 1
	.set main.locnoglobalaccess, 1
	.set usage.anon.0.locnointerfaceaccess, 1
	.set usage.anon.1.locnointerfaceaccess, 1
	.set usage.anon.2.locnointerfaceaccess, 1
	.set main.locnointerfaceaccess, 1
	.set usage.anon.0.locnonotificationselect, 1
	.set usage.anon.1.locnonotificationselect, 1
	.set usage.anon.2.locnonotificationselect, 1
	.set main.locnonotificationselect, 1
	.overlay_subgraph_conflict __main__main_tile_1_task_mgmt_intrf_0, __main__main_tile_1_task_bayer_testbench_downstream_1, __main__main_tile_1_task_bayer_interpolation_2, __main__main_tile_1_task_bayer_testbench_upstream_3


	.file	1 "F:\\Sudha\\workspace\\xCORExa-vision\\app_bayer_testbench\\.build_Debug\\../src/app_bayer_testbench.xc"
	.file	2 "F:\\Sudha\\workspace\\xCORExa-vision\\app_bayer_testbench\\.build_Debug\\<synthesized>"
	.file	3 "F:\\Sudha\\workspace\\xCORExa-vision\\app_bayer_testbench\\.build_Debug\\timer.h"
	.text
.Ltext_begin:
	.section	.dp.data,"awd",@progbits
	.section	.text._i.mgmt_interface._chan.get_response,"ax",@progbits
	.cc_top _i.mgmt_interface._chan.get_response.function
	.weak	_i.mgmt_interface._chan.get_response
	.align	4
	.type	_i.mgmt_interface._chan.get_response,@function
_i.mgmt_interface._chan.get_response:
.Ltmp4:
	.cfi_startproc
.Lfunc_begin0:
	.loc	2 0 0
	entsp 4
.Ltmp5:
	.cfi_def_cfa_offset 16
.Ltmp6:
	.cfi_offset 15, 0
	.loc	2 0 0 prologue_end
.Ltmp7:
	stw r4, sp[3]
.Ltmp8:
	.cfi_offset 4, -4
	stw r5, sp[2]
.Ltmp9:
	.cfi_offset 5, -8
	stw r6, sp[1]
.Ltmp10:
	.cfi_offset 6, -12
	mov r5, r1
.Ltmp11:
	ldw r1, r0[0]
	getr r4, 2
	setd res[r4], r1
	add r1, r4, 1
	out res[r4], r1
	outct res[r4], 2
	ldw r6, r0[1]
	mov r0, r4
.Ltmp12:
	mov r1, r6
	bl __interface_wait_and_yield
	chkct res[r4], 1
	out res[r4], r5
	outct res[r4], 2
	ldc r1, 0
	mov r0, r4
	mov r2, r6
	bl __interface_client_call
	in r0, res[r4]
	chkct res[r4], 1
	freer res[r4]
	ldw r6, sp[1]
	ldw r5, sp[2]
.Ltmp13:
	ldw r4, sp[3]
	retsp 4
.Ltmp14:
.Ltmp15:
	.size	_i.mgmt_interface._chan.get_response, .Ltmp15-_i.mgmt_interface._chan.get_response
.Lfunc_end0:
.Ltmp16:
	.cfi_endproc
.Leh_func_end0:

	.align	4
	.cc_bottom _i.mgmt_interface._chan.get_response.function
	.set	_i.mgmt_interface._chan.get_response.nstackwords,((($D __interface_wait_and_yield.nstackwords ? __interface_wait_and_yield.nstackwords $: _i.mgmt_interface._client_call.max.nstackwords) $M _i.mgmt_interface._client_call.max.nstackwords $M ($D __interface_client_call.nstackwords ? __interface_client_call.nstackwords $: _i.mgmt_interface._client_call.max.nstackwords)) + 4)
	.globl	_i.mgmt_interface._chan.get_response.nstackwords
	.weak	_i.mgmt_interface._chan.get_response.nstackwords
	.set	_i.mgmt_interface._chan.get_response.maxcores,($D __interface_client_call.maxcores ? __interface_client_call.maxcores $: _i.mgmt_interface._client_call.max.maxcores) $M ($D __interface_wait_and_yield.maxcores ? __interface_wait_and_yield.maxcores $: _i.mgmt_interface._client_call.max.maxcores) $M 1
	.globl	_i.mgmt_interface._chan.get_response.maxcores
	.weak	_i.mgmt_interface._chan.get_response.maxcores
	.set	_i.mgmt_interface._chan.get_response.maxtimers,($D __interface_client_call.maxtimers ? __interface_client_call.maxtimers $: _i.mgmt_interface._client_call.max.maxtimers) $M ($D __interface_wait_and_yield.maxtimers ? __interface_wait_and_yield.maxtimers $: _i.mgmt_interface._client_call.max.maxtimers) $M 0
	.globl	_i.mgmt_interface._chan.get_response.maxtimers
	.weak	_i.mgmt_interface._chan.get_response.maxtimers
	.set	_i.mgmt_interface._chan.get_response.maxchanends,(1 + ($D __interface_client_call.maxchanends ? __interface_client_call.maxchanends $: _i.mgmt_interface._client_call.max.maxchanends)) $M (1 + ($D __interface_wait_and_yield.maxchanends ? __interface_wait_and_yield.maxchanends $: _i.mgmt_interface._client_call.max.maxchanends)) $M 1
	.globl	_i.mgmt_interface._chan.get_response.maxchanends
	.weak	_i.mgmt_interface._chan.get_response.maxchanends
	.section	.text._i.mgmt_interface._chan.apm_mgmt,"ax",@progbits
	.cc_top _i.mgmt_interface._chan.apm_mgmt.function
	.weak	_i.mgmt_interface._chan.apm_mgmt
	.align	4
	.type	_i.mgmt_interface._chan.apm_mgmt,@function
_i.mgmt_interface._chan.apm_mgmt:
.Ltmp22:
	.cfi_startproc
.Lfunc_begin1:
	.loc	2 0 0
	entsp 5
.Ltmp23:
	.cfi_def_cfa_offset 20
.Ltmp24:
	.cfi_offset 15, 0
	.loc	2 0 0 prologue_end
.Ltmp25:
	stw r4, sp[4]
.Ltmp26:
	.cfi_offset 4, -4
	stw r5, sp[3]
.Ltmp27:
	.cfi_offset 5, -8
	stw r6, sp[2]
.Ltmp28:
	.cfi_offset 6, -12
	stw r7, sp[1]
.Ltmp29:
	.cfi_offset 7, -16
	mov r5, r2
.Ltmp30:
	mov r7, r1
.Ltmp31:
	ldw r1, r0[0]
	getr r4, 2
	setd res[r4], r1
	out res[r4], r4
	outct res[r4], 2
	ldw r6, r0[1]
	mov r0, r4
.Ltmp32:
	mov r1, r6
	bl __interface_wait_and_yield
	chkct res[r4], 1
	out res[r4], r7
	#APP
	#NO_APP
	out res[r4], r5
	outct res[r4], 2
	ldc r1, 0
	mov r0, r4
	mov r2, r6
	bl __interface_client_call
	chkct res[r4], 1
	freer res[r4]
	ldw r7, sp[1]
.Ltmp33:
	ldw r6, sp[2]
	ldw r5, sp[3]
.Ltmp34:
	ldw r4, sp[4]
	retsp 5
.Ltmp35:
.Ltmp36:
	.size	_i.mgmt_interface._chan.apm_mgmt, .Ltmp36-_i.mgmt_interface._chan.apm_mgmt
.Lfunc_end1:
.Ltmp37:
	.cfi_endproc
.Leh_func_end1:

	.align	4
	.cc_bottom _i.mgmt_interface._chan.apm_mgmt.function
	.set	_i.mgmt_interface._chan.apm_mgmt.nstackwords,((($D __interface_wait_and_yield.nstackwords ? __interface_wait_and_yield.nstackwords $: _i.mgmt_interface._client_call.max.nstackwords) $M _i.mgmt_interface._client_call.max.nstackwords $M ($D __interface_client_call.nstackwords ? __interface_client_call.nstackwords $: _i.mgmt_interface._client_call.max.nstackwords)) + 5)
	.globl	_i.mgmt_interface._chan.apm_mgmt.nstackwords
	.weak	_i.mgmt_interface._chan.apm_mgmt.nstackwords
	.set	_i.mgmt_interface._chan.apm_mgmt.maxcores,($D __interface_client_call.maxcores ? __interface_client_call.maxcores $: _i.mgmt_interface._client_call.max.maxcores) $M ($D __interface_wait_and_yield.maxcores ? __interface_wait_and_yield.maxcores $: _i.mgmt_interface._client_call.max.maxcores) $M 1
	.globl	_i.mgmt_interface._chan.apm_mgmt.maxcores
	.weak	_i.mgmt_interface._chan.apm_mgmt.maxcores
	.set	_i.mgmt_interface._chan.apm_mgmt.maxtimers,($D __interface_client_call.maxtimers ? __interface_client_call.maxtimers $: _i.mgmt_interface._client_call.max.maxtimers) $M ($D __interface_wait_and_yield.maxtimers ? __interface_wait_and_yield.maxtimers $: _i.mgmt_interface._client_call.max.maxtimers) $M 0
	.globl	_i.mgmt_interface._chan.apm_mgmt.maxtimers
	.weak	_i.mgmt_interface._chan.apm_mgmt.maxtimers
	.set	_i.mgmt_interface._chan.apm_mgmt.maxchanends,(1 + ($D __interface_client_call.maxchanends ? __interface_client_call.maxchanends $: _i.mgmt_interface._client_call.max.maxchanends)) $M (1 + ($D __interface_wait_and_yield.maxchanends ? __interface_wait_and_yield.maxchanends $: _i.mgmt_interface._client_call.max.maxchanends)) $M 1
	.globl	_i.mgmt_interface._chan.apm_mgmt.maxchanends
	.weak	_i.mgmt_interface._chan.apm_mgmt.maxchanends
	.section	.text._i.pipeline_interface._chan.release_line_buf,"ax",@progbits
	.cc_top _i.pipeline_interface._chan.release_line_buf.function
	.weak	_i.pipeline_interface._chan.release_line_buf
	.align	4
	.type	_i.pipeline_interface._chan.release_line_buf,@function
_i.pipeline_interface._chan.release_line_buf:
.Ltmp42:
	.cfi_startproc
.Lfunc_begin2:
	.loc	2 0 0
	entsp 4
.Ltmp43:
	.cfi_def_cfa_offset 16
.Ltmp44:
	.cfi_offset 15, 0
	.loc	2 0 0 prologue_end
.Ltmp45:
	stw r4, sp[3]
.Ltmp46:
	.cfi_offset 4, -4
	stw r5, sp[2]
.Ltmp47:
	.cfi_offset 5, -8
	stw r6, sp[1]
.Ltmp48:
	.cfi_offset 6, -12
	mov r5, r1
.Ltmp49:
	ldw r1, r0[0]
	getr r4, 2
	setd res[r4], r1
	add r1, r4, 1
	out res[r4], r1
	outct res[r4], 2
	ldw r6, r0[1]
	mov r0, r4
.Ltmp50:
	mov r1, r6
	bl __interface_wait_and_yield
	chkct res[r4], 1
	#APP
	#NO_APP
	out res[r4], r5
	outct res[r4], 2
	ldc r1, 0
	mov r0, r4
	mov r2, r6
	bl __interface_client_call
	chkct res[r4], 1
	freer res[r4]
	ldw r6, sp[1]
	ldw r5, sp[2]
.Ltmp51:
	ldw r4, sp[3]
	retsp 4
.Ltmp52:
.Ltmp53:
	.size	_i.pipeline_interface._chan.release_line_buf, .Ltmp53-_i.pipeline_interface._chan.release_line_buf
.Lfunc_end2:
.Ltmp54:
	.cfi_endproc
.Leh_func_end2:

	.align	4
	.cc_bottom _i.pipeline_interface._chan.release_line_buf.function
	.set	_i.pipeline_interface._chan.release_line_buf.nstackwords,((($D __interface_wait_and_yield.nstackwords ? __interface_wait_and_yield.nstackwords $: _i.pipeline_interface._client_call.max.nstackwords) $M _i.pipeline_interface._client_call.max.nstackwords $M ($D __interface_client_call.nstackwords ? __interface_client_call.nstackwords $: _i.pipeline_interface._client_call.max.nstackwords)) + 4)
	.globl	_i.pipeline_interface._chan.release_line_buf.nstackwords
	.weak	_i.pipeline_interface._chan.release_line_buf.nstackwords
	.set	_i.pipeline_interface._chan.release_line_buf.maxcores,($D __interface_client_call.maxcores ? __interface_client_call.maxcores $: _i.pipeline_interface._client_call.max.maxcores) $M ($D __interface_wait_and_yield.maxcores ? __interface_wait_and_yield.maxcores $: _i.pipeline_interface._client_call.max.maxcores) $M 1
	.globl	_i.pipeline_interface._chan.release_line_buf.maxcores
	.weak	_i.pipeline_interface._chan.release_line_buf.maxcores
	.set	_i.pipeline_interface._chan.release_line_buf.maxtimers,($D __interface_client_call.maxtimers ? __interface_client_call.maxtimers $: _i.pipeline_interface._client_call.max.maxtimers) $M ($D __interface_wait_and_yield.maxtimers ? __interface_wait_and_yield.maxtimers $: _i.pipeline_interface._client_call.max.maxtimers) $M 0
	.globl	_i.pipeline_interface._chan.release_line_buf.maxtimers
	.weak	_i.pipeline_interface._chan.release_line_buf.maxtimers
	.set	_i.pipeline_interface._chan.release_line_buf.maxchanends,(1 + ($D __interface_client_call.maxchanends ? __interface_client_call.maxchanends $: _i.pipeline_interface._client_call.max.maxchanends)) $M (1 + ($D __interface_wait_and_yield.maxchanends ? __interface_wait_and_yield.maxchanends $: _i.pipeline_interface._client_call.max.maxchanends)) $M 1
	.globl	_i.pipeline_interface._chan.release_line_buf.maxchanends
	.weak	_i.pipeline_interface._chan.release_line_buf.maxchanends
	.section	.text._i.pipeline_interface._chan.get_new_line,"ax",@progbits
	.cc_top _i.pipeline_interface._chan.get_new_line.function
	.weak	_i.pipeline_interface._chan.get_new_line
	.align	4
	.type	_i.pipeline_interface._chan.get_new_line,@function
_i.pipeline_interface._chan.get_new_line:
.Ltmp61:
	.cfi_startproc
.Lfunc_begin3:
	.loc	2 0 0
	entsp 6
.Ltmp62:
	.cfi_def_cfa_offset 24
.Ltmp63:
	.cfi_offset 15, 0
	.loc	2 0 0 prologue_end
.Ltmp64:
	stw r4, sp[5]
.Ltmp65:
	.cfi_offset 4, -4
	stw r5, sp[4]
.Ltmp66:
	.cfi_offset 5, -8
	stw r6, sp[3]
.Ltmp67:
	.cfi_offset 6, -12
	stw r7, sp[2]
.Ltmp68:
	.cfi_offset 7, -16
	stw r8, sp[1]
.Ltmp69:
	.cfi_offset 8, -20
	mov r5, r3
	mov r7, r2
	mov r8, r1
.Ltmp70:
	ldw r1, r0[0]
	getr r4, 2
	setd res[r4], r1
	out res[r4], r4
	outct res[r4], 2
	ldw r6, r0[1]
	mov r0, r4
.Ltmp71:
	mov r1, r6
	bl __interface_wait_and_yield
	chkct res[r4], 1
	#APP
	#NO_APP
	out res[r4], r8
	#APP
	#NO_APP
	out res[r4], r7
	out res[r4], r5
	ldw r0, sp[7]
	out res[r4], r0
	outct res[r4], 2
	ldc r1, 0
	mov r0, r4
	mov r2, r6
	bl __interface_client_call
	in r0, res[r4]
	chkct res[r4], 1
	freer res[r4]
	ldw r8, sp[1]
.Ltmp72:
	ldw r7, sp[2]
	ldw r6, sp[3]
	ldw r5, sp[4]
	ldw r4, sp[5]
	retsp 6
.Ltmp73:
.Ltmp74:
	.size	_i.pipeline_interface._chan.get_new_line, .Ltmp74-_i.pipeline_interface._chan.get_new_line
.Lfunc_end3:
.Ltmp75:
	.cfi_endproc
.Leh_func_end3:

	.align	4
	.cc_bottom _i.pipeline_interface._chan.get_new_line.function
	.set	_i.pipeline_interface._chan.get_new_line.nstackwords,((($D __interface_wait_and_yield.nstackwords ? __interface_wait_and_yield.nstackwords $: _i.pipeline_interface._client_call.max.nstackwords) $M _i.pipeline_interface._client_call.max.nstackwords $M ($D __interface_client_call.nstackwords ? __interface_client_call.nstackwords $: _i.pipeline_interface._client_call.max.nstackwords)) + 6)
	.globl	_i.pipeline_interface._chan.get_new_line.nstackwords
	.weak	_i.pipeline_interface._chan.get_new_line.nstackwords
	.set	_i.pipeline_interface._chan.get_new_line.maxcores,($D __interface_client_call.maxcores ? __interface_client_call.maxcores $: _i.pipeline_interface._client_call.max.maxcores) $M ($D __interface_wait_and_yield.maxcores ? __interface_wait_and_yield.maxcores $: _i.pipeline_interface._client_call.max.maxcores) $M 1
	.globl	_i.pipeline_interface._chan.get_new_line.maxcores
	.weak	_i.pipeline_interface._chan.get_new_line.maxcores
	.set	_i.pipeline_interface._chan.get_new_line.maxtimers,($D __interface_client_call.maxtimers ? __interface_client_call.maxtimers $: _i.pipeline_interface._client_call.max.maxtimers) $M ($D __interface_wait_and_yield.maxtimers ? __interface_wait_and_yield.maxtimers $: _i.pipeline_interface._client_call.max.maxtimers) $M 0
	.globl	_i.pipeline_interface._chan.get_new_line.maxtimers
	.weak	_i.pipeline_interface._chan.get_new_line.maxtimers
	.set	_i.pipeline_interface._chan.get_new_line.maxchanends,(1 + ($D __interface_client_call.maxchanends ? __interface_client_call.maxchanends $: _i.pipeline_interface._client_call.max.maxchanends)) $M (1 + ($D __interface_wait_and_yield.maxchanends ? __interface_wait_and_yield.maxchanends $: _i.pipeline_interface._client_call.max.maxchanends)) $M 1
	.globl	_i.pipeline_interface._chan.get_new_line.maxchanends
	.weak	_i.pipeline_interface._chan.get_new_line.maxchanends
	.text
	.cc_top mgmt_intrf.function
	.section	.cp.rodata.cst4,"aMc",@progbits,4
	.cc_top .LCPI4_0.data
	.align	4
.LCPI4_0:
	.long	1000000000
	.cc_bottom .LCPI4_0.data
	.text
	.globl	mgmt_intrf
	.align	4
	.type	mgmt_intrf,@function
mgmt_intrf:
.Ltmp84:
	.cfi_startproc
.Lfunc_begin4:
	.loc	1 20 0
.Lxtalabel0:
	entsp 10
.Ltmp85:
	.cfi_def_cfa_offset 40
.Ltmp86:
	.cfi_offset 15, 0
	.loc	1 20 0 prologue_end
.Ltmp87:
	stw r4, sp[9]
.Ltmp88:
	.cfi_offset 4, -4
	stw r5, sp[8]
.Ltmp89:
	.cfi_offset 5, -8
	stw r6, sp[7]
.Ltmp90:
	.cfi_offset 6, -12
	stw r7, sp[6]
.Ltmp91:
	.cfi_offset 7, -16
	stw r8, sp[5]
.Ltmp92:
	.cfi_offset 8, -20
	stw r9, sp[4]
.Ltmp93:
	.cfi_offset 9, -24
	stw r10, sp[3]
.Ltmp94:
	.cfi_offset 10, -28
	mov r4, r0
.Ltmp95:
	.loc	1 29 0
	ldaw r0, dp[__timers]
	get r11, id
	ldw r7, r0[r11]
	setc res[r7], 1
	.loc	1 29 0
.Lxta.endpoint_labels0:
	in r0, res[r7]
.Ltmp96:
	ldc r1, 49
	ldc r9, 0
	mkmsk r8, 1
	mov r6, r9
	stw r1, sp[1]
	mov r10, r1
.Ltmp97:
.LBB4_1:
	ldc r1, 25000
	.loc	1 32 0
	add r5, r0, r1
	bu .LBB4_2
.LBB4_11:
.Lxtalabel1:
	.loc	1 53 0
	ldaw r0, dp[.str1]
	ldc r1, 39
.Lxta.call_labels0:
	bl printstrln
	.loc	1 54 0
	stw r8, sp[2]
.Ltmp98:
	.loc	1 55 0
	ldw r0, r4[0]
	ldw r1, r4[3]
	ldw r3, r1[0]
	ldc r1, 4
	ldaw r2, sp[2]
	.loc	1 55 0
.Lxta.call_labels1:
	bla r3
	ldc r6, 0
.Ltmp99:
	ldc r10, 50
.LBB4_2:
.Lxtalabel2:
	.loc	1 32 0
	clre
	mov r0, r6
	zext r0, 8
	bt r0, .LBB4_4
	setd res[r7], r5
	setc res[r7], 9
	ldap r11, .Ltmp100
	setv res[r7], r11
	eeu res[r7]
.LBB4_4:
	ldw r1, r4[1]
	ldap r11, .Ltmp101
	setv res[r1], r11
	eeu res[r1]
	.loc	1 79 0
	setsr 1
	clrsr 1
	bu .Ltmp102
.LBB4_5:
.Lxtalabel3:
	.loc	1 49 0
	ldw r0, sp[1]
	zext r0, 8
	ldc r1, 49
	eq r1, r0, r1
	bt r1, .LBB4_11
.Lxtalabel4:
	ldc r1, 50
	eq r1, r0, r1
	bt r1, .LBB4_12
.Lxtalabel5:
	mkmsk r6, 1
	ldc r1, 51
	eq r0, r0, r1
	bf r0, .LBB4_2
.Lxtalabel6:
.Ltmp103:
	ldc r6, 0
	ldw r0, cp[.LCPI4_0]
	.loc	3 47 0
.Ltmp104:
	mov r1, r6
.Lxta.call_labels2:
	bl delay_ticks_longlong
.Ltmp105:
	.loc	1 69 0
	ldaw r0, dp[.str3]
	ldc r1, 43
.Lxta.call_labels3:
	bl printstrln
	.loc	1 70 0
	ldw r0, r4[0]
	ldw r1, r4[3]
	ldw r3, r1[0]
	ldc r1, 6
	.loc	1 70 0
	mov r2, r6
.Lxta.call_labels4:
	bla r3
	ldc r10, 48
.Ltmp106:
	bu .LBB4_2
.Ltmp101:
.LBB4_9:
.Lxtalabel7:
	.loc	1 37 0
	chkct res[r1], 1
	stw r8, r4[2]
	.loc	1 38 0
.Ltmp107:
	ldw r0, r4[0]
	ldw r1, r4[3]
	ldw r2, r1[1]
	.loc	1 38 0
	mov r1, r8
.Lxta.call_labels5:
	bla r2
.Ltmp108:
	.loc	1 39 0
	eq r0, r0, 1
.Ltmp109:
	.loc	1 38 0
	ldw r1, r4[1]
	chkct res[r1], 1
	stw r9, r4[2]
	.loc	1 39 0
	bf r0, .LBB4_2
.Lxtalabel8:
	.loc	1 40 0
	ldaw r0, dp[.str]
	ldc r1, 49
.Lxta.call_labels6:
	bl printstrln
	stw r10, sp[1]
	bu .LBB4_2
.Ltmp110:
.LBB4_12:
.Lxtalabel9:
	.loc	1 61 0
	ldaw r0, dp[.str2]
	ldc r1, 44
.Lxta.call_labels7:
	bl printstrln
	.loc	1 62 0
	ldw r0, r4[0]
	ldw r1, r4[3]
	ldw r3, r1[0]
	ldc r6, 0
	ldc r1, 5
	.loc	1 62 0
	mov r2, r6
.Lxta.call_labels8:
	bla r3
.Ltmp111:
	ldc r10, 51
	bu .LBB4_2
.Ltmp102:
.LBB4_13:
	.loc	1 79 0
	bt r0, .LBB4_5
	
	.xtabranch .LBB4_15, .LBB4_9
waiteu
.Ltmp100:
.LBB4_15:
.Lxtalabel10:
.Ltmp112:
	.loc	1 33 0
.Lxta.endpoint_labels1:
	in r0, res[r7]
.Ltmp113:
	mov r6, r8
	bu .LBB4_1
.Ltmp114:
.Ltmp115:
	.size	mgmt_intrf, .Ltmp115-mgmt_intrf
.Lfunc_end4:
.Ltmp116:
	.cfi_endproc
.Leh_func_end4:

	.align	4
	.cc_bottom mgmt_intrf.function
	.set	mgmt_intrf.nstackwords,((_i.mgmt_interface.get_response.max.nstackwords $M delay_ticks_longlong.nstackwords $M printstrln.nstackwords $M _i.mgmt_interface.apm_mgmt.max.nstackwords) + 10)
	.globl	mgmt_intrf.nstackwords
	.set	mgmt_intrf.maxcores,_i.mgmt_interface.apm_mgmt.max.maxcores $M _i.mgmt_interface.get_response.max.maxcores $M delay_ticks_longlong.maxcores $M printstrln.maxcores $M 1
	.globl	mgmt_intrf.maxcores
	.set	mgmt_intrf.maxtimers,_i.mgmt_interface.apm_mgmt.max.maxtimers $M _i.mgmt_interface.get_response.max.maxtimers $M delay_ticks_longlong.maxtimers $M printstrln.maxtimers $M 0
	.globl	mgmt_intrf.maxtimers
	.set	mgmt_intrf.maxchanends,_i.mgmt_interface.apm_mgmt.max.maxchanends $M _i.mgmt_interface.get_response.max.maxchanends $M delay_ticks_longlong.maxchanends $M printstrln.maxchanends $M 0
	.globl	mgmt_intrf.maxchanends
	.cc_top __main__main_tile_1.function
	.globl	__main__main_tile_1
	.align	4
	.type	__main__main_tile_1,@function
__main__main_tile_1:
.Ltmp118:
	.cfi_startproc
	entsp 43
.Ltmp119:
	.cfi_def_cfa_offset 172
.Ltmp120:
	.cfi_offset 15, 0
	getr r1, 2
	getr r2, 2
	setd res[r2], r1
	setd res[r1], r2
	stw r1, sp[16]
	ldc r0, 0
	stw r0, sp[17]
	ldaw r3, sp[16]
	stw r3, sp[18]
	stw r2, sp[19]
	stw r0, sp[20]
	ldaw r3, dp[.vtable]
	stw r3, sp[21]
	stw r1, sp[11]
	stw r2, sp[14]
	stw r1, sp[13]
	mkmsk r1, 1
	stw r1, sp[15]
	getr r1, 2
	stw r1, sp[7]
	stw r0, sp[8]
	ldaw r2, sp[7]
	stw r2, sp[9]
	ldaw r2, dp[.vtable4]
	stw r2, sp[10]
	stw r1, sp[6]
	getr r1, 2
	stw r1, sp[2]
	stw r0, sp[3]
	ldaw r0, sp[2]
	stw r0, sp[4]
	ldaw r0, dp[.vtable5]
	stw r0, sp[5]
	stw r1, sp[1]
	ldaw r0, sp[11]
	stw r0, sp[32]
	ldaw r0, sp[18]
	stw r0, sp[33]
	ldaw r0, sp[6]
	stw r0, sp[27]
	ldaw r0, sp[9]
	stw r0, sp[28]
	ldaw r0, sp[1]
	stw r0, sp[22]
	ldaw r0, sp[4]
	stw r0, sp[23]
	ldaw r0, sp[22]
	ldaw r1, dp[par.desc.1]
	bl __start_other_cores
.Ltmp121:
	.size	__main__main_tile_1, .Ltmp121-__main__main_tile_1
.Ltmp122:
	.cfi_endproc
.Leh_func_end5:

	.align	4
	.cc_bottom __main__main_tile_1.function
	.set	__main__main_tile_1.nstackwords,((par.extra_stackwords + 1 + __main__main_tile_1_task_mgmt_intrf_0.nstackwords + 1 + __main__main_tile_1_task_bayer_testbench_downstream_1.nstackwords + 1 + __main__main_tile_1_task_bayer_interpolation_2.nstackwords + 1 + __main__main_tile_1_task_bayer_testbench_upstream_3.nstackwords) + 43)
	.globl	__main__main_tile_1.nstackwords
	.set	__main__main_tile_1.maxcores,(0 + __main__main_tile_1_task_mgmt_intrf_0.maxcores + __main__main_tile_1_task_bayer_testbench_downstream_1.maxcores + __main__main_tile_1_task_bayer_interpolation_2.maxcores + __main__main_tile_1_task_bayer_testbench_upstream_3.maxcores) $M 1
	.globl	__main__main_tile_1.maxcores
	.set	__main__main_tile_1.maxtimers,(3 + __main__main_tile_1_task_mgmt_intrf_0.maxtimers + __main__main_tile_1_task_bayer_testbench_downstream_1.maxtimers + __main__main_tile_1_task_bayer_interpolation_2.maxtimers + __main__main_tile_1_task_bayer_testbench_upstream_3.maxtimers) $M 0
	.globl	__main__main_tile_1.maxtimers
	.set	__main__main_tile_1.maxchanends,(4 + (0 + __main__main_tile_1_task_mgmt_intrf_0.maxchanends + __main__main_tile_1_task_bayer_testbench_downstream_1.maxchanends + __main__main_tile_1_task_bayer_interpolation_2.maxchanends + __main__main_tile_1_task_bayer_testbench_upstream_3.maxchanends)) $M 4
	.globl	__main__main_tile_1.maxchanends
	.cc_top __main__main_tile_1_task_mgmt_intrf_0.function
	.align	4
	.type	__main__main_tile_1_task_mgmt_intrf_0,@function
__main__main_tile_1_task_mgmt_intrf_0:
.Ltmp124:
	.cfi_startproc
.Lfunc_begin6:
	.loc	1 91 0
	entsp 1
.Ltmp125:
	.cfi_def_cfa_offset 4
.Ltmp126:
	.cfi_offset 15, 0
	.loc	1 91 0 prologue_end
.Ltmp127:
	ldw r0, r0[11]
.Ltmp128:
	.loc	1 91 0
.Lxta.call_labels9:
	bl mgmt_intrf
.Ltmp129:
.Ltmp130:
	.size	__main__main_tile_1_task_mgmt_intrf_0, .Ltmp130-__main__main_tile_1_task_mgmt_intrf_0
.Lfunc_end6:
.Ltmp131:
	.cfi_endproc
.Leh_func_end6:

	.align	4
	.cc_bottom __main__main_tile_1_task_mgmt_intrf_0.function
	.set	__main__main_tile_1_task_mgmt_intrf_0.nstackwords,(mgmt_intrf.nstackwords + 1)
	.set	__main__main_tile_1_task_mgmt_intrf_0.maxcores,mgmt_intrf.maxcores $M 1
	.set	__main__main_tile_1_task_mgmt_intrf_0.maxtimers,mgmt_intrf.maxtimers $M 0
	.set	__main__main_tile_1_task_mgmt_intrf_0.maxchanends,mgmt_intrf.maxchanends $M 0
	.cc_top __main__main_tile_1_task_bayer_testbench_downstream_1.function
	.align	4
	.type	__main__main_tile_1_task_bayer_testbench_downstream_1,@function
__main__main_tile_1_task_bayer_testbench_downstream_1:
.Ltmp133:
	.cfi_startproc
.Lfunc_begin7:
	.loc	1 92 0
	entsp 1
.Ltmp134:
	.cfi_def_cfa_offset 4
.Ltmp135:
	.cfi_offset 15, 0
	.loc	1 92 0 prologue_end
.Ltmp136:
	ldw r0, r0[5]
.Ltmp137:
	.loc	1 92 0
.Lxta.call_labels10:
	bl bayer_testbench_downstream
	retsp 1
.Ltmp138:
.Ltmp139:
	.size	__main__main_tile_1_task_bayer_testbench_downstream_1, .Ltmp139-__main__main_tile_1_task_bayer_testbench_downstream_1
.Lfunc_end7:
.Ltmp140:
	.cfi_endproc
.Leh_func_end7:

	.align	4
	.cc_bottom __main__main_tile_1_task_bayer_testbench_downstream_1.function
	.set	__main__main_tile_1_task_bayer_testbench_downstream_1.nstackwords,(bayer_testbench_downstream.nstackwords + 1)
	.set	__main__main_tile_1_task_bayer_testbench_downstream_1.maxcores,bayer_testbench_downstream.maxcores $M 1
	.set	__main__main_tile_1_task_bayer_testbench_downstream_1.maxtimers,bayer_testbench_downstream.maxtimers $M 0
	.set	__main__main_tile_1_task_bayer_testbench_downstream_1.maxchanends,bayer_testbench_downstream.maxchanends $M 0
	.cc_top __main__main_tile_1_task_bayer_interpolation_2.function
	.align	4
	.type	__main__main_tile_1_task_bayer_interpolation_2,@function
__main__main_tile_1_task_bayer_interpolation_2:
.Ltmp142:
	.cfi_startproc
.Lfunc_begin8:
	.loc	1 93 0
	entsp 1
.Ltmp143:
	.cfi_def_cfa_offset 4
.Ltmp144:
	.cfi_offset 15, 0
	.loc	1 93 0 prologue_end
.Ltmp145:
	ldw r2, r0[0]
	ldw r1, r0[6]
	ldw r0, r0[10]
.Ltmp146:
	.loc	1 93 0
.Lxta.call_labels11:
	bl bayer_interpolation
	retsp 1
.Ltmp147:
.Ltmp148:
	.size	__main__main_tile_1_task_bayer_interpolation_2, .Ltmp148-__main__main_tile_1_task_bayer_interpolation_2
.Lfunc_end8:
.Ltmp149:
	.cfi_endproc
.Leh_func_end8:

	.align	4
	.cc_bottom __main__main_tile_1_task_bayer_interpolation_2.function
	.set	__main__main_tile_1_task_bayer_interpolation_2.nstackwords,(bayer_interpolation.nstackwords + 1)
	.set	__main__main_tile_1_task_bayer_interpolation_2.maxcores,bayer_interpolation.maxcores $M 1
	.set	__main__main_tile_1_task_bayer_interpolation_2.maxtimers,bayer_interpolation.maxtimers $M 0
	.set	__main__main_tile_1_task_bayer_interpolation_2.maxchanends,bayer_interpolation.maxchanends $M 0
	.cc_top __main__main_tile_1_task_bayer_testbench_upstream_3.function
	.align	4
	.type	__main__main_tile_1_task_bayer_testbench_upstream_3,@function
__main__main_tile_1_task_bayer_testbench_upstream_3:
.Ltmp151:
	.cfi_startproc
.Lfunc_begin9:
	.loc	1 94 0
	entsp 1
.Ltmp152:
	.cfi_def_cfa_offset 4
.Ltmp153:
	.cfi_offset 15, 0
	.loc	1 94 0 prologue_end
.Ltmp154:
	ldw r0, r0[1]
.Ltmp155:
	.loc	1 94 0
.Lxta.call_labels12:
	bl bayer_testbench_upstream
	retsp 1
.Ltmp156:
.Ltmp157:
	.size	__main__main_tile_1_task_bayer_testbench_upstream_3, .Ltmp157-__main__main_tile_1_task_bayer_testbench_upstream_3
.Lfunc_end9:
.Ltmp158:
	.cfi_endproc
.Leh_func_end9:

	.align	4
	.cc_bottom __main__main_tile_1_task_bayer_testbench_upstream_3.function
	.set	__main__main_tile_1_task_bayer_testbench_upstream_3.nstackwords,(bayer_testbench_upstream.nstackwords + 1)
	.set	__main__main_tile_1_task_bayer_testbench_upstream_3.maxcores,bayer_testbench_upstream.maxcores $M 1
	.set	__main__main_tile_1_task_bayer_testbench_upstream_3.maxtimers,bayer_testbench_upstream.maxtimers $M 0
	.set	__main__main_tile_1_task_bayer_testbench_upstream_3.maxchanends,bayer_testbench_upstream.maxchanends $M 0
	.section	.dp.rodata,"awd",@progbits
	.cc_top .str.data
	.align	4
	.type	.str,@object
	.size .str,49
.str:
.asciiz "mgmt_if: received APM_MGMT_SUCCESS from bayer_if"
	.cc_bottom .str.data
	.cc_top .str1.data
	.align	4
	.type	.str1,@object
	.size .str1,39
.str1:
.asciiz "mgmt_if:Sending bayer mode to bayer_if"
	.cc_bottom .str1.data
	.cc_top .str2.data
	.align	4
	.type	.str2,@object
	.size .str2,44
.str2:
.asciiz "mgmt_if:Sending start operation to bayer_if"
	.cc_bottom .str2.data
	.cc_top .str3.data
	.align	4
	.type	.str3,@object
	.size .str3,43
.str3:
.asciiz "mgmt_if:Sending stop operation to bayer_if"
	.cc_bottom .str3.data
	.cc_top .vtable.data
	.align	4
	.type	.vtable,@object
	.size .vtable,20
.vtable:
	.long	_i.mgmt_interface._chan.apm_mgmt
	.long	_i.mgmt_interface._chan.get_response
	.long	__interface_client_push_yield
	.long	__interface_client_pop_yield
	.long	__noop
	.cc_bottom .vtable.data
	.cc_top .vtable4.data
	.align	4
	.type	.vtable4,@object
	.size .vtable4,20
.vtable4:
	.long	_i.pipeline_interface._chan.get_new_line
	.long	_i.pipeline_interface._chan.release_line_buf
	.long	__interface_client_push_yield
	.long	__interface_client_pop_yield
	.long	__noop
	.cc_bottom .vtable4.data
	.cc_top .vtable5.data
	.align	4
	.type	.vtable5,@object
	.size .vtable5,20
.vtable5:
	.long	_i.pipeline_interface._chan.get_new_line
	.long	_i.pipeline_interface._chan.release_line_buf
	.long	__interface_client_push_yield
	.long	__interface_client_pop_yield
	.long	__noop
	.cc_bottom .vtable5.data
	.section	.dp.data,"awd",@progbits
	.cc_top par.desc.1.data
	.align	4
	.type	par.desc.1,@object
	.size par.desc.1,32
par.desc.1:
	.long	__main__main_tile_1_task_bayer_testbench_downstream_1
	.long	__main__main_tile_1_task_bayer_testbench_upstream_3.nstackwords
	.long	__main__main_tile_1_task_bayer_interpolation_2
	.long	__main__main_tile_1_task_bayer_testbench_downstream_1.nstackwords
	.long	__main__main_tile_1_task_mgmt_intrf_0
	.long	__main__main_tile_1_task_bayer_interpolation_2.nstackwords
	.long	0
	.long	__main__main_tile_1_task_bayer_testbench_upstream_3
	.cc_bottom par.desc.1.data
	.cfi_sections .debug_frame
	.text
.Ltext_end:
	.section	.dp.data,"awd",@progbits
.Ldata_end:
	.text
.Lsection_end1:
	.section	.xtacalltable,"",@progbits
.Lentries_start0:
	.long	.Lentries_end1-.Lentries_start0
	.long	0
	.ascii	 "F:\\Sudha\\workspace\\xCORExa-vision\\app_bayer_testbench\\.build_Debug"
	.byte	0
.cc_top cc_0,.Lxta.call_labels5
	.ascii	 "../src/app_bayer_testbench.xc"
	.byte	0
	.long	38
	.long	.Lxta.call_labels5
.cc_bottom cc_0
.cc_top cc_1,.Lxta.call_labels6
	.ascii	 "../src/app_bayer_testbench.xc"
	.byte	0
	.long	40
	.long	.Lxta.call_labels6
.cc_bottom cc_1
.cc_top cc_2,.Lxta.call_labels0
	.ascii	 "../src/app_bayer_testbench.xc"
	.byte	0
	.long	53
	.long	.Lxta.call_labels0
.cc_bottom cc_2
.cc_top cc_3,.Lxta.call_labels1
	.ascii	 "../src/app_bayer_testbench.xc"
	.byte	0
	.long	55
	.long	.Lxta.call_labels1
.cc_bottom cc_3
.cc_top cc_4,.Lxta.call_labels7
	.ascii	 "../src/app_bayer_testbench.xc"
	.byte	0
	.long	61
	.long	.Lxta.call_labels7
.cc_bottom cc_4
.cc_top cc_5,.Lxta.call_labels8
	.ascii	 "../src/app_bayer_testbench.xc"
	.byte	0
	.long	62
	.long	.Lxta.call_labels8
.cc_bottom cc_5
.cc_top cc_6,.Lxta.call_labels3
	.ascii	 "../src/app_bayer_testbench.xc"
	.byte	0
	.long	69
	.long	.Lxta.call_labels3
.cc_bottom cc_6
.cc_top cc_7,.Lxta.call_labels4
	.ascii	 "../src/app_bayer_testbench.xc"
	.byte	0
	.long	70
	.long	.Lxta.call_labels4
.cc_bottom cc_7
.cc_top cc_8,.Lxta.call_labels9
	.ascii	 "../src/app_bayer_testbench.xc"
	.byte	0
	.long	91
	.long	.Lxta.call_labels9
.cc_bottom cc_8
.cc_top cc_9,.Lxta.call_labels10
	.ascii	 "../src/app_bayer_testbench.xc"
	.byte	0
	.long	92
	.long	.Lxta.call_labels10
.cc_bottom cc_9
.cc_top cc_10,.Lxta.call_labels11
	.ascii	 "../src/app_bayer_testbench.xc"
	.byte	0
	.long	93
	.long	.Lxta.call_labels11
.cc_bottom cc_10
.cc_top cc_11,.Lxta.call_labels12
	.ascii	 "../src/app_bayer_testbench.xc"
	.byte	0
	.long	94
	.long	.Lxta.call_labels12
.cc_bottom cc_11
.cc_top cc_12,.Lxta.call_labels2
	.ascii	 "timer.h"
	.byte	0
	.long	47
	.long	.Lxta.call_labels2
.cc_bottom cc_12
.Lentries_end1:
	.section	.xtaendpointtable,"",@progbits
.Lentries_start2:
	.long	.Lentries_end3-.Lentries_start2
	.long	0
	.ascii	 "F:\\Sudha\\workspace\\xCORExa-vision\\app_bayer_testbench\\.build_Debug"
	.byte	0
.cc_top cc_13,.Lxta.endpoint_labels0
	.ascii	 "../src/app_bayer_testbench.xc"
	.byte	0
	.long	29
	.long	.Lxta.endpoint_labels0
.cc_bottom cc_13
.cc_top cc_14,.Lxta.endpoint_labels1
	.ascii	 "../src/app_bayer_testbench.xc"
	.byte	0
	.long	32
	.long	.Lxta.endpoint_labels1
.cc_bottom cc_14
.Lentries_end3:
	.section	.xtalabeltable,"",@progbits
.Lentries_start4:
	.long	.Lentries_end5-.Lentries_start4
	.long	0
	.ascii	 "F:\\Sudha\\workspace\\xCORExa-vision\\app_bayer_testbench\\.build_Debug"
	.byte	0
.cc_top cc_15,.Lxtalabel0
	.ascii	 "../src/app_bayer_testbench.xc"
	.byte	0
	.long	21
	.long	31
	.long	.Lxtalabel0
.cc_bottom cc_15
.cc_top cc_16,.Lxtalabel2
	.ascii	 "../src/app_bayer_testbench.xc"
	.byte	0
	.long	32
	.long	33
	.long	.Lxtalabel2
.cc_bottom cc_16
.cc_top cc_17,.Lxtalabel10
	.ascii	 "../src/app_bayer_testbench.xc"
	.byte	0
	.long	34
	.long	37
	.long	.Lxtalabel10
.cc_bottom cc_17
.cc_top cc_18,.Lxtalabel7
	.ascii	 "../src/app_bayer_testbench.xc"
	.byte	0
	.long	38
	.long	39
	.long	.Lxtalabel7
.cc_bottom cc_18
.cc_top cc_19,.Lxtalabel8
	.ascii	 "../src/app_bayer_testbench.xc"
	.byte	0
	.long	40
	.long	43
	.long	.Lxtalabel8
.cc_bottom cc_19
.cc_top cc_20,.Lxtalabel1
	.ascii	 "../src/app_bayer_testbench.xc"
	.byte	0
	.long	52
	.long	59
	.long	.Lxtalabel1
.cc_bottom cc_20
.cc_top cc_21,.Lxtalabel9
	.ascii	 "../src/app_bayer_testbench.xc"
	.byte	0
	.long	60
	.long	66
	.long	.Lxtalabel9
.cc_bottom cc_21
.cc_top cc_22,.Lxtalabel6
	.ascii	 "../src/app_bayer_testbench.xc"
	.byte	0
	.long	67
	.long	74
	.long	.Lxtalabel6
.cc_bottom cc_22
.cc_top cc_23,.Lxtalabel3
	.ascii	 "../src/app_bayer_testbench.xc"
	.byte	0
	.long	75
	.long	77
	.long	.Lxtalabel3
.cc_bottom cc_23
.cc_top cc_24,.Lxtalabel4
	.ascii	 "../src/app_bayer_testbench.xc"
	.byte	0
	.long	75
	.long	77
	.long	.Lxtalabel4
.cc_bottom cc_24
.cc_top cc_25,.Lxtalabel5
	.ascii	 "../src/app_bayer_testbench.xc"
	.byte	0
	.long	75
	.long	77
	.long	.Lxtalabel5
.cc_bottom cc_25
.cc_top cc_26,.Lxtalabel3
	.ascii	 "../src/app_bayer_testbench.xc"
	.byte	0
	.long	79
	.long	80
	.long	.Lxtalabel3
.cc_bottom cc_26
.cc_top cc_27,.Lxtalabel4
	.ascii	 "../src/app_bayer_testbench.xc"
	.byte	0
	.long	79
	.long	80
	.long	.Lxtalabel4
.cc_bottom cc_27
.cc_top cc_28,.Lxtalabel5
	.ascii	 "../src/app_bayer_testbench.xc"
	.byte	0
	.long	79
	.long	80
	.long	.Lxtalabel5
.cc_bottom cc_28
.cc_top cc_29,.Lxtalabel6
	.ascii	 "timer.h"
	.byte	0
	.long	47
	.long	48
	.long	.Lxtalabel6
.cc_bottom cc_29
.Lentries_end5:
